target datalayout = "e-m:e-p270:32:32-p271:32:32-p272:64:64-i64:64-i128:128-f80:128-n8:16:32:64-S128"
target triple = "x86_64-pc-linux-gnu"

%struct.Bus_Man_t_ = type { ptr, ptr, ptr, ptr, ptr, ptr, ptr, ptr, ptr, ptr, ptr, ptr }
%struct.Abc_Ntk_t_ = type { i32, i32, ptr, ptr, ptr, ptr, ptr, ptr, ptr, ptr, ptr, ptr, ptr, [11 x i32], i32, i32, i32, i32, ptr, i32, ptr, ptr, i32, i32, i32, double, i32, %struct.Vec_Int_t_, ptr, ptr, ptr, ptr, ptr, float, i32, ptr, ptr, ptr, ptr, ptr, ptr, ptr, ptr, ptr, ptr, ptr, ptr, ptr, ptr, ptr, ptr, ptr, ptr, ptr, ptr, ptr, ptr }
%struct.Vec_Int_t_ = type { i32, i32, ptr }
%struct.Vec_Flt_t_ = type { i32, i32, ptr }
%struct.Abc_Obj_t_ = type { ptr, ptr, i32, i32, %struct.Vec_Int_t_, %struct.Vec_Int_t_, %union.anon, %union.anon.0 }
%union.anon = type { ptr }
%union.anon.0 = type { ptr }

; Function Attrs: inlinehint nounwind uwtable
define internal float @Vec_FltEntry(ptr noundef %0, i32 noundef %1) #4 {
  %3 = alloca ptr, align 8
  %4 = alloca i32, align 4
  store ptr %0, ptr %3, align 8, !tbaa !70
  store i32 %1, ptr %4, align 4, !tbaa !58
  %5 = load ptr, ptr %3, align 8, !tbaa !70
  %6 = getelementptr inbounds nuw %struct.Vec_Flt_t_, ptr %5, i32 0, i32 2
  %7 = load ptr, ptr %6, align 8, !tbaa !73
  %8 = load i32, ptr %4, align 4, !tbaa !58
  %9 = sext i32 %8 to i64
  %10 = getelementptr inbounds float, ptr %7, i64 %9
  %11 = load float, ptr %10, align 4, !tbaa !74
  ret float %11
}

; Function Attrs: inlinehint nounwind uwtable
define internal i32 @Abc_ObjId(ptr noundef %0) #4 {
  %2 = alloca ptr, align 8
  store ptr %0, ptr %2, align 8, !tbaa !60
  %3 = load ptr, ptr %2, align 8, !tbaa !60
  %4 = getelementptr inbounds nuw %struct.Abc_Obj_t_, ptr %3, i32 0, i32 2
  %5 = load i32, ptr %4, align 8, !tbaa !101
  ret i32 %5
}

; Function Attrs: inlinehint nounwind uwtable
define internal ptr @Bus_SclObjMan(ptr noundef %0) #4 {
  %2 = alloca ptr, align 8
  store ptr %0, ptr %2, align 8, !tbaa !60
  %3 = load ptr, ptr %2, align 8, !tbaa !60
  %4 = getelementptr inbounds nuw %struct.Abc_Obj_t_, ptr %3, i32 0, i32 0
  %5 = load ptr, ptr %4, align 8, !tbaa !86
  %6 = getelementptr inbounds nuw %struct.Abc_Ntk_t_, ptr %5, i32 0, i32 44
  %7 = load ptr, ptr %6, align 8, !tbaa !56
  ret ptr %7
}

; Function Attrs: inlinehint nounwind uwtable
define internal float @Bus_SclObjCin(ptr noundef %0) #4 {
  %2 = alloca ptr, align 8
  store ptr %0, ptr %2, align 8, !tbaa !60
  %3 = load ptr, ptr %2, align 8, !tbaa !60
  %4 = call ptr @Bus_SclObjMan(ptr noundef %3)
  %5 = getelementptr inbounds nuw %struct.Bus_Man_t_, ptr %4, i32 0, i32 7
  %6 = load ptr, ptr %5, align 8, !tbaa !52
  %7 = load ptr, ptr %2, align 8, !tbaa !60
  %8 = call i32 @Abc_ObjId(ptr noundef %7)
  %9 = call float @Vec_FltEntry(ptr noundef %6, i32 noundef %8)
  ret float %9
}

; Function Attrs: inlinehint nounwind uwtable
define internal float @Bus_SclObjETime(ptr noundef %0) #4 {
  %2 = alloca ptr, align 8
  store ptr %0, ptr %2, align 8, !tbaa !60
  %3 = load ptr, ptr %2, align 8, !tbaa !60
  %4 = call ptr @Bus_SclObjMan(ptr noundef %3)
  %5 = getelementptr inbounds nuw %struct.Bus_Man_t_, ptr %4, i32 0, i32 8
  %6 = load ptr, ptr %5, align 8, !tbaa !53
  %7 = load ptr, ptr %2, align 8, !tbaa !60
  %8 = call i32 @Abc_ObjId(ptr noundef %7)
  %9 = call float @Vec_FltEntry(ptr noundef %6, i32 noundef %8)
  ret float %9
}

; Function Attrs: nounwind uwtable
define i32 @Bus_SclCompareFanouts(ptr noundef %0, ptr noundef %1) #0 {
  %3 = alloca i32, align 4
  %4 = alloca ptr, align 8
  %5 = alloca ptr, align 8
  %6 = alloca float, align 4
  %7 = alloca i32, align 4
  store ptr %0, ptr %4, align 8, !tbaa !104
  store ptr %1, ptr %5, align 8, !tbaa !104
  call void @llvm.lifetime.start.p0(i64 4, ptr %6) #12
  store float 0.000000e+00, ptr %6, align 4, !tbaa !74
  %8 = load ptr, ptr %4, align 8, !tbaa !104
  %9 = load ptr, ptr %8, align 8, !tbaa !60
  %10 = call float @Bus_SclObjETime(ptr noundef %9)
  %11 = load ptr, ptr %5, align 8, !tbaa !104
  %12 = load ptr, ptr %11, align 8, !tbaa !60
  %13 = call float @Bus_SclObjETime(ptr noundef %12)
  %14 = load float, ptr %6, align 4, !tbaa !74
  %15 = fsub float %13, %14
  %16 = fcmp olt float %10, %15
  br i1 %16, label %17, label %18

17:                                               ; preds = %2
  store i32 -1, ptr %3, align 4
  store i32 1, ptr %7, align 4
  br label %48

18:                                               ; preds = %2
  %19 = load ptr, ptr %4, align 8, !tbaa !104
  %20 = load ptr, ptr %19, align 8, !tbaa !60
  %21 = call float @Bus_SclObjETime(ptr noundef %20)
  %22 = load ptr, ptr %5, align 8, !tbaa !104
  %23 = load ptr, ptr %22, align 8, !tbaa !60
  %24 = call float @Bus_SclObjETime(ptr noundef %23)
  %25 = load float, ptr %6, align 4, !tbaa !74
  %26 = fadd float %24, %25
  %27 = fcmp ogt float %21, %26
  br i1 %27, label %28, label %29

28:                                               ; preds = %18
  store i32 1, ptr %3, align 4
  store i32 1, ptr %7, align 4
  br label %48

29:                                               ; preds = %18
  %30 = load ptr, ptr %4, align 8, !tbaa !104
  %31 = load ptr, ptr %30, align 8, !tbaa !60
  %32 = call float @Bus_SclObjCin(ptr noundef %31)
  %33 = load ptr, ptr %5, align 8, !tbaa !104
  %34 = load ptr, ptr %33, align 8, !tbaa !60
  %35 = call float @Bus_SclObjCin(ptr noundef %34)
  %36 = fcmp ogt float %32, %35
  br i1 %36, label %37, label %38

37:                                               ; preds = %29
  store i32 -1, ptr %3, align 4
  store i32 1, ptr %7, align 4
  br label %48

38:                                               ; preds = %29
  %39 = load ptr, ptr %4, align 8, !tbaa !104
  %40 = load ptr, ptr %39, align 8, !tbaa !60
  %41 = call float @Bus_SclObjCin(ptr noundef %40)
  %42 = load ptr, ptr %5, align 8, !tbaa !104
  %43 = load ptr, ptr %42, align 8, !tbaa !60
  %44 = call float @Bus_SclObjCin(ptr noundef %43)
  %45 = fcmp olt float %41, %44
  br i1 %45, label %46, label %47

46:                                               ; preds = %38
  store i32 1, ptr %3, align 4
  store i32 1, ptr %7, align 4
  br label %48

47:                                               ; preds = %38
  store i32 -1, ptr %3, align 4
  store i32 1, ptr %7, align 4
  br label %48

48:                                               ; preds = %47, %46, %37, %28, %17
  call void @llvm.lifetime.end.p0(i64 4, ptr %6) #12
  %49 = load i32, ptr %3, align 4
  ret i32 %49
}