; Function Attrs: mustprogress nofree norecurse nosync nounwind willreturn memory(read, inaccessiblemem: none) uwtable
define range(i32 -1, 2) i32 @Bus_SclCompareFanouts(ptr noundef readonly captures(none) %0, ptr noundef readonly captures(none) %1) #7 {
  %3 = load ptr, ptr %0, align 8, !tbaa !99
  %.val23 = load ptr, ptr %3, align 8, !tbaa !48
  %4 = getelementptr i8, ptr %3, i64 16
  %.val24 = load i32, ptr %4, align 8, !tbaa !51
  %5 = getelementptr i8, ptr %.val23, i64 360
  %.val23.val = load ptr, ptr %5, align 8, !tbaa !74
  %6 = getelementptr i8, ptr %.val23.val, i64 64
  %.val23.val.val = load ptr, ptr %6, align 8, !tbaa !70
  %7 = getelementptr i8, ptr %.val23.val.val, i64 8
  %.val23.val.val.val = load ptr, ptr %7, align 8, !tbaa !68
  %8 = sext i32 %.val24 to i64
  %9 = getelementptr inbounds float, ptr %.val23.val.val.val, i64 %8
  %10 = load float, ptr %9, align 4, !tbaa !73
  %11 = load ptr, ptr %1, align 8, !tbaa !99
  %.val21 = load ptr, ptr %11, align 8, !tbaa !48
  %12 = getelementptr i8, ptr %11, i64 16
  %.val22 = load i32, ptr %12, align 8, !tbaa !51
  %13 = getelementptr i8, ptr %.val21, i64 360
  %.val21.val = load ptr, ptr %13, align 8, !tbaa !74
  %14 = getelementptr i8, ptr %.val21.val, i64 64
  %.val21.val.val = load ptr, ptr %14, align 8, !tbaa !70
  %15 = getelementptr i8, ptr %.val21.val.val, i64 8
  %.val21.val.val.val = load ptr, ptr %15, align 8, !tbaa !68
  %16 = sext i32 %.val22 to i64
  %17 = getelementptr inbounds float, ptr %.val21.val.val.val, i64 %16
  %18 = load float, ptr %17, align 4, !tbaa !73
  %19 = fcmp olt float %10, %18
  br i1 %19, label %34, label %20

20:                                               ; preds = %2
  %21 = fcmp ogt float %10, %18
  br i1 %21, label %34, label %22

22:                                               ; preds = %20
  %23 = getelementptr i8, ptr %.val23.val, i64 56
  %.val15.val.val = load ptr, ptr %23, align 8, !tbaa !69
  %24 = getelementptr i8, ptr %.val15.val.val, i64 8
  %.val15.val.val.val = load ptr, ptr %24, align 8, !tbaa !68
  %25 = getelementptr inbounds float, ptr %.val15.val.val.val, i64 %8
  %26 = load float, ptr %25, align 4, !tbaa !73
  %27 = getelementptr i8, ptr %.val21.val, i64 56
  %.val13.val.val = load ptr, ptr %27, align 8, !tbaa !69
  %28 = getelementptr i8, ptr %.val13.val.val, i64 8
  %.val13.val.val.val = load ptr, ptr %28, align 8, !tbaa !68
  %29 = getelementptr inbounds float, ptr %.val13.val.val.val, i64 %16
  %30 = load float, ptr %29, align 4, !tbaa !73
  %31 = fcmp ogt float %26, %30
  br i1 %31, label %34, label %32

32:                                               ; preds = %22
  %33 = fcmp olt float %26, %30
  %. = select i1 %33, i32 1, i32 -1
  br label %34

34:                                               ; preds = %32, %22, %20, %2
  %.0 = phi i32 [ -1, %2 ], [ 1, %20 ], [ -1, %22 ], [ %., %32 ]
  ret i32 %.0
}